target datalayout = "e-m:e-p270:32:32-p271:32:32-p272:64:64-i64:64-i128:128-f80:128-n8:16:32:64-S128"
target triple = "x86_64-pc-linux-gnu"

%struct._zend_alloc_globals = type { ptr }
%struct._zend_mm_heap = type { i32, ptr, i64, i64, [30 x ptr], i64, i64, i64, i32, ptr, ptr, ptr, i32, i32, i32, double, i32, i32, %struct.anon, ptr }
%struct.anon = type { ptr, ptr, ptr }
%struct._zend_mm_chunk = type { ptr, ptr, ptr, i32, i32, i32, [28 x i8], %struct._zend_mm_heap, [8 x i64], [512 x i32] }

@.str = private unnamed_addr constant [23 x i8] c"zend_mm_heap corrupted\00", align 1
@alloc_globals = internal global %struct._zend_alloc_globals zeroinitializer, align 8

; Function Attrs: nounwind uwtable
define void @_efree_2560(ptr noundef %0) #0 {
  %2 = alloca ptr, align 8
  %3 = alloca ptr, align 8
  %4 = alloca i32, align 4
  %5 = alloca ptr, align 8
  %6 = alloca ptr, align 8
  %7 = alloca ptr, align 8
  store ptr %0, ptr %6, align 8
  br label %8

8:                                                ; preds = %1
  %9 = load ptr, ptr @alloc_globals, align 8
  %10 = getelementptr inbounds %struct._zend_mm_heap, ptr %9, i32 0, i32 0
  %11 = load i32, ptr %10, align 8
  %12 = icmp ne i32 %11, 0
  %13 = xor i1 %12, true
  %14 = xor i1 %13, true
  %15 = zext i1 %14 to i32
  %16 = sext i32 %15 to i64
  %17 = icmp ne i64 %16, 0
  br i1 %17, label %18, label %24

18:                                               ; preds = %8
  %19 = load ptr, ptr @alloc_globals, align 8
  %20 = getelementptr inbounds %struct._zend_mm_heap, ptr %19, i32 0, i32 18
  %21 = getelementptr inbounds %struct.anon, ptr %20, i32 0, i32 1
  %22 = load ptr, ptr %21, align 8
  %23 = load ptr, ptr %6, align 8
  call void %22(ptr noundef %23)
  br label %70

24:                                               ; preds = %8
  br label %25

25:                                               ; preds = %24
  %26 = load ptr, ptr %6, align 8
  %27 = ptrtoint ptr %26 to i64
  %28 = and i64 %27, -2097152
  %29 = inttoptr i64 %28 to ptr
  store ptr %29, ptr %7, align 8
  br label %30

30:                                               ; preds = %25
  %31 = load ptr, ptr %7, align 8
  %32 = getelementptr inbounds %struct._zend_mm_chunk, ptr %31, i32 0, i32 0
  %33 = load ptr, ptr %32, align 8
  %34 = load ptr, ptr @alloc_globals, align 8
  %35 = icmp eq ptr %33, %34
  %36 = xor i1 %35, true
  %37 = xor i1 %36, true
  %38 = xor i1 %37, true
  %39 = zext i1 %38 to i32
  %40 = sext i32 %39 to i64
  %41 = icmp ne i64 %40, 0
  br i1 %41, label %42, label %43

42:                                               ; preds = %30
  call void @zend_mm_panic(ptr noundef @.str) #19
  unreachable

43:                                               ; preds = %30
  br label %44

44:                                               ; preds = %43
  %45 = load ptr, ptr @alloc_globals, align 8
  %46 = load ptr, ptr %6, align 8
  store ptr %45, ptr %2, align 8
  store ptr %46, ptr %3, align 8
  store i32 28, ptr %4, align 4
  %47 = load i32, ptr %4, align 4
  %48 = sext i32 %47 to i64
  %49 = getelementptr inbounds [30 x i32], ptr @bin_data_size, i64 0, i64 %48
  %50 = load i32, ptr %49, align 4
  %51 = zext i32 %50 to i64
  %52 = load ptr, ptr %2, align 8
  %53 = getelementptr inbounds %struct._zend_mm_heap, ptr %52, i32 0, i32 2
  %54 = load i64, ptr %53, align 8
  %55 = sub i64 %54, %51
  store i64 %55, ptr %53, align 8
  %56 = load ptr, ptr %3, align 8
  store ptr %56, ptr %5, align 8
  %57 = load ptr, ptr %2, align 8
  %58 = getelementptr inbounds %struct._zend_mm_heap, ptr %57, i32 0, i32 4
  %59 = load i32, ptr %4, align 4
  %60 = sext i32 %59 to i64
  %61 = getelementptr inbounds [30 x ptr], ptr %58, i64 0, i64 %60
  %62 = load ptr, ptr %61, align 8
  %63 = load ptr, ptr %5, align 8
  store ptr %62, ptr %63, align 8
  %64 = load ptr, ptr %5, align 8
  %65 = load ptr, ptr %2, align 8
  %66 = getelementptr inbounds %struct._zend_mm_heap, ptr %65, i32 0, i32 4
  %67 = load i32, ptr %4, align 4
  %68 = sext i32 %67 to i64
  %69 = getelementptr inbounds [30 x ptr], ptr %66, i64 0, i64 %68
  store ptr %64, ptr %69, align 8
  br label %70

70:                                               ; preds = %44, %18
  ret void
}